target datalayout = "e-m:e-p270:32:32-p271:32:32-p272:64:64-i64:64-i128:128-f80:128-n8:16:32:64-S128"
target triple = "x86_64-pc-linux-gnu"

%struct.XML_Memory_Handling_Suite = type { ptr, ptr, ptr }
%struct.XML_ParserStruct = type { ptr, ptr, ptr, %struct.XML_Memory_Handling_Suite, ptr, ptr, ptr, i64, ptr, i64, i8, i32, ptr, ptr, ptr, ptr, ptr, ptr, ptr, ptr, ptr, ptr, ptr, ptr, ptr, ptr, ptr, ptr, ptr, ptr, ptr, ptr, ptr, ptr, ptr, ptr, ptr, ptr, %struct.INIT_ENCODING, ptr, ptr, i8, i8, ptr, ptr, ptr, ptr, %struct.prolog_state, ptr, i32, ptr, ptr, ptr, ptr, ptr, i8, i32, ptr, ptr, ptr, ptr, ptr, ptr, ptr, ptr, ptr, i8, i8, ptr, ptr, ptr, ptr, ptr, ptr, i32, i32, i32, ptr, ptr, i64, i8, %struct.position, %struct.STRING_POOL, %struct.STRING_POOL, ptr, i32, i8, ptr, %struct.XML_ParsingStatus, i64 }
%struct.INIT_ENCODING = type { %struct.encoding, ptr }
%struct.encoding = type { [3 x ptr], [2 x ptr], ptr, ptr, ptr, ptr, ptr, ptr, ptr, ptr, ptr, ptr, i32, i8, i8 }
%struct.prolog_state = type { ptr, i32, i32 }
%struct.position = type { i64, i64 }
%struct.STRING_POOL = type { ptr, ptr, ptr, ptr, ptr, ptr }
%struct.XML_ParsingStatus = type { i32, i8 }
%struct.DTD = type { %struct.HASH_TABLE, %struct.HASH_TABLE, %struct.HASH_TABLE, %struct.HASH_TABLE, %struct.STRING_POOL, %struct.STRING_POOL, i8, i8, i8, %struct.prefix, i8, ptr, i32, i32, i32, i32, ptr }
%struct.HASH_TABLE = type { ptr, i8, i64, i64, ptr }
%struct.prefix = type { ptr, ptr }
%struct.CONTENT_SCAFFOLD = type { i32, i32, ptr, i32, i32, i32, i32 }

; Function Attrs: nounwind uwtable
define internal i32 @nextScaffoldPart(ptr noundef %0) #0 {
  %2 = alloca i32, align 4
  %3 = alloca ptr, align 8
  %4 = alloca ptr, align 8
  %5 = alloca ptr, align 8
  %6 = alloca i32, align 4
  %7 = alloca i32, align 4
  %8 = alloca ptr, align 8
  %9 = alloca ptr, align 8
  store ptr %0, ptr %3, align 8, !tbaa !13
  call void @llvm.lifetime.start.p0(i64 8, ptr %4) #10
  %10 = load ptr, ptr %3, align 8, !tbaa !13
  %11 = getelementptr inbounds nuw %struct.XML_ParserStruct, ptr %10, i32 0, i32 68
  %12 = load ptr, ptr %11, align 8, !tbaa !41
  store ptr %12, ptr %4, align 8, !tbaa !9
  call void @llvm.lifetime.start.p0(i64 8, ptr %5) #10
  call void @llvm.lifetime.start.p0(i64 4, ptr %6) #10
  %13 = load ptr, ptr %4, align 8, !tbaa !9
  %14 = getelementptr inbounds nuw %struct.DTD, ptr %13, i32 0, i32 16
  %15 = load ptr, ptr %14, align 8, !tbaa !152
  %16 = icmp ne ptr %15, null
  br i1 %16, label %40, label %17

17:                                               ; preds = %1
  %18 = load ptr, ptr %3, align 8, !tbaa !13
  %19 = getelementptr inbounds nuw %struct.XML_ParserStruct, ptr %18, i32 0, i32 3
  %20 = getelementptr inbounds nuw %struct.XML_Memory_Handling_Suite, ptr %19, i32 0, i32 0
  %21 = load ptr, ptr %20, align 8, !tbaa !36
  %22 = load ptr, ptr %3, align 8, !tbaa !13
  %23 = getelementptr inbounds nuw %struct.XML_ParserStruct, ptr %22, i32 0, i32 85
  %24 = load i32, ptr %23, align 8, !tbaa !45
  %25 = zext i32 %24 to i64
  %26 = mul i64 %25, 4
  %27 = call ptr %21(i64 noundef %26)
  %28 = load ptr, ptr %4, align 8, !tbaa !9
  %29 = getelementptr inbounds nuw %struct.DTD, ptr %28, i32 0, i32 16
  store ptr %27, ptr %29, align 8, !tbaa !152
  %30 = load ptr, ptr %4, align 8, !tbaa !9
  %31 = getelementptr inbounds nuw %struct.DTD, ptr %30, i32 0, i32 16
  %32 = load ptr, ptr %31, align 8, !tbaa !152
  %33 = icmp ne ptr %32, null
  br i1 %33, label %35, label %34

34:                                               ; preds = %17
  store i32 -1, ptr %2, align 4
  store i32 1, ptr %7, align 4
  br label %174

35:                                               ; preds = %17
  %36 = load ptr, ptr %4, align 8, !tbaa !9
  %37 = getelementptr inbounds nuw %struct.DTD, ptr %36, i32 0, i32 16
  %38 = load ptr, ptr %37, align 8, !tbaa !152
  %39 = getelementptr inbounds i32, ptr %38, i64 0
  store i32 0, ptr %39, align 4, !tbaa !177
  br label %40

40:                                               ; preds = %35, %1
  %41 = load ptr, ptr %4, align 8, !tbaa !9
  %42 = getelementptr inbounds nuw %struct.DTD, ptr %41, i32 0, i32 14
  %43 = load i32, ptr %42, align 8, !tbaa !156
  %44 = load ptr, ptr %4, align 8, !tbaa !9
  %45 = getelementptr inbounds nuw %struct.DTD, ptr %44, i32 0, i32 13
  %46 = load i32, ptr %45, align 4, !tbaa !155
  %47 = icmp uge i32 %43, %46
  br i1 %47, label %48, label %101

48:                                               ; preds = %40
  call void @llvm.lifetime.start.p0(i64 8, ptr %8) #10
  %49 = load ptr, ptr %4, align 8, !tbaa !9
  %50 = getelementptr inbounds nuw %struct.DTD, ptr %49, i32 0, i32 11
  %51 = load ptr, ptr %50, align 8, !tbaa !153
  %52 = icmp ne ptr %51, null
  br i1 %52, label %53, label %82

53:                                               ; preds = %48
  %54 = load ptr, ptr %4, align 8, !tbaa !9
  %55 = getelementptr inbounds nuw %struct.DTD, ptr %54, i32 0, i32 13
  %56 = load i32, ptr %55, align 4, !tbaa !155
  %57 = icmp ugt i32 %56, 2147483647
  br i1 %57, label %58, label %59

58:                                               ; preds = %53
  store i32 -1, ptr %2, align 4
  store i32 1, ptr %7, align 4
  br label %98

59:                                               ; preds = %53
  %60 = load ptr, ptr %3, align 8, !tbaa !13
  %61 = getelementptr inbounds nuw %struct.XML_ParserStruct, ptr %60, i32 0, i32 3
  %62 = getelementptr inbounds nuw %struct.XML_Memory_Handling_Suite, ptr %61, i32 0, i32 1
  %63 = load ptr, ptr %62, align 8, !tbaa !213
  %64 = load ptr, ptr %4, align 8, !tbaa !9
  %65 = getelementptr inbounds nuw %struct.DTD, ptr %64, i32 0, i32 11
  %66 = load ptr, ptr %65, align 8, !tbaa !153
  %67 = load ptr, ptr %4, align 8, !tbaa !9
  %68 = getelementptr inbounds nuw %struct.DTD, ptr %67, i32 0, i32 13
  %69 = load i32, ptr %68, align 4, !tbaa !155
  %70 = mul i32 %69, 2
  %71 = zext i32 %70 to i64
  %72 = mul i64 %71, 32
  %73 = call ptr %63(ptr noundef %66, i64 noundef %72)
  store ptr %73, ptr %8, align 8, !tbaa !9
  %74 = load ptr, ptr %8, align 8, !tbaa !9
  %75 = icmp eq ptr %74, null
  br i1 %75, label %76, label %77

76:                                               ; preds = %59
  store i32 -1, ptr %2, align 4
  store i32 1, ptr %7, align 4
  br label %98

77:                                               ; preds = %59
  %78 = load ptr, ptr %4, align 8, !tbaa !9
  %79 = getelementptr inbounds nuw %struct.DTD, ptr %78, i32 0, i32 13
  %80 = load i32, ptr %79, align 4, !tbaa !155
  %81 = mul i32 %80, 2
  store i32 %81, ptr %79, align 4, !tbaa !155
  br label %94

82:                                               ; preds = %48
  %83 = load ptr, ptr %3, align 8, !tbaa !13
  %84 = getelementptr inbounds nuw %struct.XML_ParserStruct, ptr %83, i32 0, i32 3
  %85 = getelementptr inbounds nuw %struct.XML_Memory_Handling_Suite, ptr %84, i32 0, i32 0
  %86 = load ptr, ptr %85, align 8, !tbaa !36
  %87 = call ptr %86(i64 noundef 1024)
  store ptr %87, ptr %8, align 8, !tbaa !9
  %88 = load ptr, ptr %8, align 8, !tbaa !9
  %89 = icmp eq ptr %88, null
  br i1 %89, label %90, label %91

90:                                               ; preds = %82
  store i32 -1, ptr %2, align 4
  store i32 1, ptr %7, align 4
  br label %98

91:                                               ; preds = %82
  %92 = load ptr, ptr %4, align 8, !tbaa !9
  %93 = getelementptr inbounds nuw %struct.DTD, ptr %92, i32 0, i32 13
  store i32 32, ptr %93, align 4, !tbaa !155
  br label %94

94:                                               ; preds = %91, %77
  %95 = load ptr, ptr %8, align 8, !tbaa !9
  %96 = load ptr, ptr %4, align 8, !tbaa !9
  %97 = getelementptr inbounds nuw %struct.DTD, ptr %96, i32 0, i32 11
  store ptr %95, ptr %97, align 8, !tbaa !153
  store i32 0, ptr %7, align 4
  br label %98

98:                                               ; preds = %94, %90, %76, %58
  call void @llvm.lifetime.end.p0(i64 8, ptr %8) #10
  %99 = load i32, ptr %7, align 4
  switch i32 %99, label %174 [
    i32 0, label %100
  ]

100:                                              ; preds = %98
  br label %101

101:                                              ; preds = %100, %40
  %102 = load ptr, ptr %4, align 8, !tbaa !9
  %103 = getelementptr inbounds nuw %struct.DTD, ptr %102, i32 0, i32 14
  %104 = load i32, ptr %103, align 8, !tbaa !156
  %105 = add i32 %104, 1
  store i32 %105, ptr %103, align 8, !tbaa !156
  store i32 %104, ptr %6, align 4, !tbaa !177
  %106 = load ptr, ptr %4, align 8, !tbaa !9
  %107 = getelementptr inbounds nuw %struct.DTD, ptr %106, i32 0, i32 11
  %108 = load ptr, ptr %107, align 8, !tbaa !153
  %109 = load i32, ptr %6, align 4, !tbaa !177
  %110 = sext i32 %109 to i64
  %111 = getelementptr inbounds %struct.CONTENT_SCAFFOLD, ptr %108, i64 %110
  store ptr %111, ptr %5, align 8, !tbaa !9
  %112 = load ptr, ptr %4, align 8, !tbaa !9
  %113 = getelementptr inbounds nuw %struct.DTD, ptr %112, i32 0, i32 15
  %114 = load i32, ptr %113, align 4, !tbaa !154
  %115 = icmp ne i32 %114, 0
  br i1 %115, label %116, label %164

116:                                              ; preds = %101
  call void @llvm.lifetime.start.p0(i64 8, ptr %9) #10
  %117 = load ptr, ptr %4, align 8, !tbaa !9
  %118 = getelementptr inbounds nuw %struct.DTD, ptr %117, i32 0, i32 11
  %119 = load ptr, ptr %118, align 8, !tbaa !153
  %120 = load ptr, ptr %4, align 8, !tbaa !9
  %121 = getelementptr inbounds nuw %struct.DTD, ptr %120, i32 0, i32 16
  %122 = load ptr, ptr %121, align 8, !tbaa !152
  %123 = load ptr, ptr %4, align 8, !tbaa !9
  %124 = getelementptr inbounds nuw %struct.DTD, ptr %123, i32 0, i32 15
  %125 = load i32, ptr %124, align 4, !tbaa !154
  %126 = sub nsw i32 %125, 1
  %127 = sext i32 %126 to i64
  %128 = getelementptr inbounds i32, ptr %122, i64 %127
  %129 = load i32, ptr %128, align 4, !tbaa !177
  %130 = sext i32 %129 to i64
  %131 = getelementptr inbounds %struct.CONTENT_SCAFFOLD, ptr %119, i64 %130
  store ptr %131, ptr %9, align 8, !tbaa !9
  %132 = load ptr, ptr %9, align 8, !tbaa !9
  %133 = getelementptr inbounds nuw %struct.CONTENT_SCAFFOLD, ptr %132, i32 0, i32 4
  %134 = load i32, ptr %133, align 4, !tbaa !275
  %135 = icmp ne i32 %134, 0
  br i1 %135, label %136, label %147

136:                                              ; preds = %116
  %137 = load i32, ptr %6, align 4, !tbaa !177
  %138 = load ptr, ptr %4, align 8, !tbaa !9
  %139 = getelementptr inbounds nuw %struct.DTD, ptr %138, i32 0, i32 11
  %140 = load ptr, ptr %139, align 8, !tbaa !153
  %141 = load ptr, ptr %9, align 8, !tbaa !9
  %142 = getelementptr inbounds nuw %struct.CONTENT_SCAFFOLD, ptr %141, i32 0, i32 4
  %143 = load i32, ptr %142, align 4, !tbaa !275
  %144 = sext i32 %143 to i64
  %145 = getelementptr inbounds %struct.CONTENT_SCAFFOLD, ptr %140, i64 %144
  %146 = getelementptr inbounds nuw %struct.CONTENT_SCAFFOLD, ptr %145, i32 0, i32 6
  store i32 %137, ptr %146, align 4, !tbaa !276
  br label %147

147:                                              ; preds = %136, %116
  %148 = load ptr, ptr %9, align 8, !tbaa !9
  %149 = getelementptr inbounds nuw %struct.CONTENT_SCAFFOLD, ptr %148, i32 0, i32 5
  %150 = load i32, ptr %149, align 8, !tbaa !277
  %151 = icmp ne i32 %150, 0
  br i1 %151, label %156, label %152

152:                                              ; preds = %147
  %153 = load i32, ptr %6, align 4, !tbaa !177
  %154 = load ptr, ptr %9, align 8, !tbaa !9
  %155 = getelementptr inbounds nuw %struct.CONTENT_SCAFFOLD, ptr %154, i32 0, i32 3
  store i32 %153, ptr %155, align 8, !tbaa !278
  br label %156

156:                                              ; preds = %152, %147
  %157 = load i32, ptr %6, align 4, !tbaa !177
  %158 = load ptr, ptr %9, align 8, !tbaa !9
  %159 = getelementptr inbounds nuw %struct.CONTENT_SCAFFOLD, ptr %158, i32 0, i32 4
  store i32 %157, ptr %159, align 4, !tbaa !275
  %160 = load ptr, ptr %9, align 8, !tbaa !9
  %161 = getelementptr inbounds nuw %struct.CONTENT_SCAFFOLD, ptr %160, i32 0, i32 5
  %162 = load i32, ptr %161, align 8, !tbaa !277
  %163 = add nsw i32 %162, 1
  store i32 %163, ptr %161, align 8, !tbaa !277
  call void @llvm.lifetime.end.p0(i64 8, ptr %9) #10
  br label %164

164:                                              ; preds = %156, %101
  %165 = load ptr, ptr %5, align 8, !tbaa !9
  %166 = getelementptr inbounds nuw %struct.CONTENT_SCAFFOLD, ptr %165, i32 0, i32 6
  store i32 0, ptr %166, align 4, !tbaa !276
  %167 = load ptr, ptr %5, align 8, !tbaa !9
  %168 = getelementptr inbounds nuw %struct.CONTENT_SCAFFOLD, ptr %167, i32 0, i32 5
  store i32 0, ptr %168, align 8, !tbaa !277
  %169 = load ptr, ptr %5, align 8, !tbaa !9
  %170 = getelementptr inbounds nuw %struct.CONTENT_SCAFFOLD, ptr %169, i32 0, i32 4
  store i32 0, ptr %170, align 4, !tbaa !275
  %171 = load ptr, ptr %5, align 8, !tbaa !9
  %172 = getelementptr inbounds nuw %struct.CONTENT_SCAFFOLD, ptr %171, i32 0, i32 3
  store i32 0, ptr %172, align 8, !tbaa !278
  %173 = load i32, ptr %6, align 4, !tbaa !177
  store i32 %173, ptr %2, align 4
  store i32 1, ptr %7, align 4
  br label %174

174:                                              ; preds = %164, %98, %34
  call void @llvm.lifetime.end.p0(i64 4, ptr %6) #10
  call void @llvm.lifetime.end.p0(i64 8, ptr %5) #10
  call void @llvm.lifetime.end.p0(i64 8, ptr %4) #10
  %175 = load i32, ptr %2, align 4
  ret i32 %175
}