; Function Attrs: nounwind uwtable
define internal fastcc i32 @nextScaffoldPart(ptr noundef readonly captures(none) %0) unnamed_addr #0 {
  %2 = getelementptr inbounds nuw i8, ptr %0, i64 664
  %3 = load ptr, ptr %2, align 8, !tbaa !38
  %4 = getelementptr inbounds nuw i8, ptr %3, i64 312
  %5 = load ptr, ptr %4, align 8, !tbaa !109
  %.not = icmp eq ptr %5, null
  br i1 %.not, label %6, label %15

6:                                                ; preds = %1
  %7 = getelementptr inbounds nuw i8, ptr %0, i64 24
  %8 = load ptr, ptr %7, align 8, !tbaa !35
  %9 = getelementptr inbounds nuw i8, ptr %0, i64 880
  %10 = load i32, ptr %9, align 8, !tbaa !53
  %11 = zext i32 %10 to i64
  %12 = shl nuw nsw i64 %11, 2
  %13 = tail call ptr %8(i64 noundef %12) #23
  store ptr %13, ptr %4, align 8, !tbaa !109
  %.not53 = icmp eq ptr %13, null
  br i1 %.not53, label %67, label %14

14:                                               ; preds = %6
  store i32 0, ptr %13, align 4, !tbaa !192
  br label %15

15:                                               ; preds = %14, %1
  %16 = getelementptr inbounds nuw i8, ptr %3, i64 304
  %17 = load i32, ptr %16, align 8, !tbaa !240
  %18 = getelementptr inbounds nuw i8, ptr %3, i64 300
  %19 = load i32, ptr %18, align 4, !tbaa !171
  %.not54 = icmp ult i32 %17, %19
  %.phi.trans.insert = getelementptr inbounds nuw i8, ptr %3, i64 288
  %.pre59 = load ptr, ptr %.phi.trans.insert, align 8, !tbaa !110
  br i1 %.not54, label %._crit_edge, label %20

20:                                               ; preds = %15
  %.not55 = icmp eq ptr %.pre59, null
  br i1 %.not55, label %34, label %21

21:                                               ; preds = %20
  %22 = icmp slt i32 %19, 0
  br i1 %22, label %67, label %23

23:                                               ; preds = %21
  %24 = getelementptr inbounds nuw i8, ptr %0, i64 32
  %25 = load ptr, ptr %24, align 8, !tbaa !209
  %26 = shl nuw i32 %19, 1
  %27 = zext i32 %26 to i64
  %28 = shl nuw nsw i64 %27, 5
  %29 = tail call ptr %25(ptr noundef nonnull %.pre59, i64 noundef %28) #23
  %30 = icmp eq ptr %29, null
  br i1 %30, label %67, label %31

31:                                               ; preds = %23
  %32 = load i32, ptr %18, align 4, !tbaa !171
  %33 = shl i32 %32, 1
  br label %.critedge

34:                                               ; preds = %20
  %35 = getelementptr inbounds nuw i8, ptr %0, i64 24
  %36 = load ptr, ptr %35, align 8, !tbaa !35
  %37 = tail call ptr %36(i64 noundef 1024) #23
  %38 = icmp eq ptr %37, null
  br i1 %38, label %67, label %.critedge

.critedge:                                        ; preds = %34, %31
  %storemerge = phi i32 [ %33, %31 ], [ 32, %34 ]
  %.044 = phi ptr [ %29, %31 ], [ %37, %34 ]
  store i32 %storemerge, ptr %18, align 4, !tbaa !171
  store ptr %.044, ptr %.phi.trans.insert, align 8, !tbaa !110
  %.pre = load i32, ptr %16, align 8, !tbaa !240
  br label %._crit_edge

._crit_edge:                                      ; preds = %15, %.critedge
  %39 = phi ptr [ %.044, %.critedge ], [ %.pre59, %15 ]
  %40 = phi i32 [ %.pre, %.critedge ], [ %17, %15 ]
  %41 = add i32 %40, 1
  store i32 %41, ptr %16, align 8, !tbaa !240
  %42 = sext i32 %40 to i64
  %43 = getelementptr inbounds nuw i8, ptr %3, i64 308
  %44 = load i32, ptr %43, align 4, !tbaa !172
  %.not56 = icmp eq i32 %44, 0
  br i1 %.not56, label %65, label %45

45:                                               ; preds = %._crit_edge
  %46 = load ptr, ptr %4, align 8, !tbaa !109
  %47 = sext i32 %44 to i64
  %48 = getelementptr i32, ptr %46, i64 %47
  %49 = getelementptr i8, ptr %48, i64 -4
  %50 = load i32, ptr %49, align 4, !tbaa !192
  %51 = sext i32 %50 to i64
  %52 = getelementptr inbounds %struct.CONTENT_SCAFFOLD, ptr %39, i64 %51
  %53 = getelementptr inbounds nuw i8, ptr %52, i64 20
  %54 = load i32, ptr %53, align 4, !tbaa !270
  %.not57 = icmp eq i32 %54, 0
  br i1 %.not57, label %58, label %55

55:                                               ; preds = %45
  %56 = sext i32 %54 to i64
  %57 = getelementptr inbounds %struct.CONTENT_SCAFFOLD, ptr %39, i64 %56, i32 6
  store i32 %40, ptr %57, align 4, !tbaa !271
  br label %58

58:                                               ; preds = %55, %45
  %59 = getelementptr inbounds nuw i8, ptr %52, i64 24
  %60 = load i32, ptr %59, align 8, !tbaa !251
  %.not58 = icmp eq i32 %60, 0
  br i1 %.not58, label %61, label %63

61:                                               ; preds = %58
  %62 = getelementptr inbounds nuw i8, ptr %52, i64 16
  store i32 %40, ptr %62, align 8, !tbaa !272
  br label %63

63:                                               ; preds = %61, %58
  store i32 %40, ptr %53, align 4, !tbaa !270
  %64 = add nsw i32 %60, 1
  store i32 %64, ptr %59, align 8, !tbaa !251
  br label %65

65:                                               ; preds = %63, %._crit_edge
  %66 = getelementptr inbounds %struct.CONTENT_SCAFFOLD, ptr %39, i64 %42, i32 3
  tail call void @llvm.memset.p0.i64(ptr noundef nonnull align 8 dereferenceable(16) %66, i8 0, i64 16, i1 false)
  br label %67

67:                                               ; preds = %21, %23, %34, %6, %65
  %.0 = phi i32 [ %40, %65 ], [ -1, %6 ], [ -1, %34 ], [ -1, %23 ], [ -1, %21 ]
  ret i32 %.0
}